target datalayout = "e-m:e-p270:32:32-p271:32:32-p272:64:64-i64:64-i128:128-f80:128-n8:16:32:64-S128"
target triple = "x86_64-pc-linux-gnu"

%struct.AVProbeData = type { ptr, ptr, i32, ptr }

; Function Attrs: alwaysinline nounwind willreturn memory(none) uwtable
define internal zeroext i16 @av_bswap16(i16 noundef zeroext %0) #10 {
  %2 = alloca i16, align 2
  store i16 %0, ptr %2, align 2, !tbaa !146
  %3 = load i16, ptr %2, align 2, !tbaa !146
  %4 = zext i16 %3 to i32
  %5 = ashr i32 %4, 8
  %6 = load i16, ptr %2, align 2, !tbaa !146
  %7 = zext i16 %6 to i32
  %8 = shl i32 %7, 8
  %9 = or i32 %5, %8
  %10 = trunc i32 %9 to i16
  store i16 %10, ptr %2, align 2, !tbaa !146
  %11 = load i16, ptr %2, align 2, !tbaa !146
  ret i16 %11
}

; Function Attrs: nounwind uwtable
define internal i32 @bmp_probe(ptr noundef %0) #0 {
  %2 = alloca i32, align 4
  %3 = alloca ptr, align 8
  %4 = alloca ptr, align 8
  %5 = alloca i32, align 4
  %6 = alloca i32, align 4
  store ptr %0, ptr %3, align 8, !tbaa !139
  call void @llvm.lifetime.start.p0(i64 8, ptr %4) #12
  %7 = load ptr, ptr %3, align 8, !tbaa !139
  %8 = getelementptr inbounds nuw %struct.AVProbeData, ptr %7, i32 0, i32 1
  %9 = load ptr, ptr %8, align 8, !tbaa !96
  store ptr %9, ptr %4, align 8, !tbaa !76
  call void @llvm.lifetime.start.p0(i64 4, ptr %5) #12
  %10 = load ptr, ptr %4, align 8, !tbaa !76
  %11 = load i16, ptr %10, align 1, !tbaa !77
  %12 = call zeroext i16 @av_bswap16(i16 noundef zeroext %11) #15
  %13 = zext i16 %12 to i32
  %14 = icmp ne i32 %13, 16973
  br i1 %14, label %15, label %16

15:                                               ; preds = %1
  store i32 0, ptr %2, align 4
  store i32 1, ptr %6, align 4
  br label %33

16:                                               ; preds = %1
  %17 = load ptr, ptr %4, align 8, !tbaa !76
  %18 = getelementptr inbounds i8, ptr %17, i64 14
  %19 = load i32, ptr %18, align 1, !tbaa !77
  store i32 %19, ptr %5, align 4, !tbaa !28
  %20 = load i32, ptr %5, align 4, !tbaa !28
  %21 = icmp slt i32 %20, 12
  br i1 %21, label %25, label %22

22:                                               ; preds = %16
  %23 = load i32, ptr %5, align 4, !tbaa !28
  %24 = icmp sgt i32 %23, 255
  br i1 %24, label %25, label %26

25:                                               ; preds = %22, %16
  store i32 0, ptr %2, align 4
  store i32 1, ptr %6, align 4
  br label %33

26:                                               ; preds = %22
  %27 = load ptr, ptr %4, align 8, !tbaa !76
  %28 = getelementptr inbounds i8, ptr %27, i64 6
  %29 = load i32, ptr %28, align 1, !tbaa !77
  %30 = icmp ne i32 %29, 0
  br i1 %30, label %32, label %31

31:                                               ; preds = %26
  store i32 51, ptr %2, align 4
  store i32 1, ptr %6, align 4
  br label %33

32:                                               ; preds = %26
  store i32 12, ptr %2, align 4
  store i32 1, ptr %6, align 4
  br label %33

33:                                               ; preds = %32, %31, %25, %15
  call void @llvm.lifetime.end.p0(i64 4, ptr %5) #12
  call void @llvm.lifetime.end.p0(i64 8, ptr %4) #12
  %34 = load i32, ptr %2, align 4
  ret i32 %34
}