; Function Attrs: mustprogress nofree norecurse nosync nounwind willreturn memory(read, inaccessiblemem: none) uwtable
define internal range(i32 0, 52) i32 @bmp_probe(ptr noundef readonly captures(none) %0) #8 {
  %2 = getelementptr inbounds nuw i8, ptr %0, i64 8
  %3 = load ptr, ptr %2, align 8, !tbaa !90
  %4 = load i16, ptr %3, align 1, !tbaa !68
  %.not = icmp eq i16 %4, 19778
  br i1 %.not, label %5, label %12

5:                                                ; preds = %1
  %6 = getelementptr inbounds nuw i8, ptr %3, i64 14
  %7 = load i32, ptr %6, align 1, !tbaa !68
  %8 = add i32 %7, -256
  %or.cond = icmp ult i32 %8, -244
  br i1 %or.cond, label %12, label %9

9:                                                ; preds = %5
  %10 = getelementptr inbounds nuw i8, ptr %3, i64 6
  %11 = load i32, ptr %10, align 1, !tbaa !68
  %.not7 = icmp eq i32 %11, 0
  %. = select i1 %.not7, i32 51, i32 12
  br label %12

12:                                               ; preds = %9, %5, %1
  %.0 = phi i32 [ 0, %1 ], [ 0, %5 ], [ %., %9 ]
  ret i32 %.0
}